; Function Attrs: nounwind uwtable
define hidden i32 @Curl_ntlm_core_mk_nt_hash(ptr noundef readonly captures(none) %0, ptr noundef %1) local_unnamed_addr #0 {
  %3 = tail call i64 @strlen(ptr noundef nonnull dereferenceable(1) %0) #9
  %4 = icmp slt i64 %3, 0
  br i1 %4, label %26, label %5

5:                                                ; preds = %2
  %.not = icmp eq i64 %3, 0
  br i1 %.not, label %6, label %.thread

6:                                                ; preds = %5
  %7 = load ptr, ptr @Curl_cstrdup, align 8, !tbaa !6
  %8 = tail call ptr %7(ptr noundef nonnull @.str) #8
  %.not17 = icmp eq ptr %8, null
  br i1 %.not17, label %26, label %ascii_to_unicode_le.exit

.thread:                                          ; preds = %5
  %9 = load ptr, ptr @Curl_cmalloc, align 8, !tbaa !6
  %10 = shl nuw i64 %3, 1
  %11 = tail call ptr %9(i64 noundef %10) #8
  %.not1719 = icmp eq ptr %11, null
  br i1 %.not1719, label %26, label %.lr.ph.i

.lr.ph.i:                                         ; preds = %.thread, %.lr.ph.i
  %.08.i = phi i64 [ %18, %.lr.ph.i ], [ 0, %.thread ]
  %12 = getelementptr inbounds nuw i8, ptr %0, i64 %.08.i
  %13 = load i8, ptr %12, align 1, !tbaa !3
  %14 = shl nuw i64 %.08.i, 1
  %15 = getelementptr inbounds nuw i8, ptr %11, i64 %14
  store i8 %13, ptr %15, align 1, !tbaa !3
  %16 = or disjoint i64 %14, 1
  %17 = getelementptr inbounds nuw i8, ptr %11, i64 %16
  store i8 0, ptr %17, align 1, !tbaa !3
  %18 = add nuw nsw i64 %.08.i, 1
  %exitcond.not.i = icmp eq i64 %18, %3
  br i1 %exitcond.not.i, label %ascii_to_unicode_le.exit, label %.lr.ph.i, !llvm.loop !8

ascii_to_unicode_le.exit:                         ; preds = %.lr.ph.i, %6
  %19 = phi ptr [ %8, %6 ], [ %11, %.lr.ph.i ]
  %20 = shl nuw i64 %3, 1
  %21 = tail call i32 @Curl_md4it(ptr noundef %1, ptr noundef nonnull %19, i64 noundef %20) #8
  %.not18 = icmp eq i32 %21, 0
  br i1 %.not18, label %22, label %24

22:                                               ; preds = %ascii_to_unicode_le.exit
  %23 = getelementptr inbounds nuw i8, ptr %1, i64 16
  tail call void @llvm.memset.p0.i64(ptr noundef nonnull align 1 dereferenceable(5) %23, i8 0, i64 5, i1 false)
  br label %24

24:                                               ; preds = %22, %ascii_to_unicode_le.exit
  %25 = load ptr, ptr @Curl_cfree, align 8, !tbaa !6
  tail call void %25(ptr noundef nonnull %19) #8
  br label %26

26:                                               ; preds = %.thread, %6, %2, %24
  %.0 = phi i32 [ %21, %24 ], [ 27, %2 ], [ 27, %6 ], [ 27, %.thread ]
  ret i32 %.0
}